ccopy_reg
_reconstructor
p0
(cneat.genome
DefaultGenome
p1
c__builtin__
object
p2
Ntp3
Rp4
(dp5
S'connections'
p6
(dp7
(I13
I1
tp8
g0
(cneat.genes
DefaultConnectionGene
p9
g2
Ntp10
Rp11
(dp12
S'enabled'
p13
I01
sS'weight'
p14
F2.5797967981888172
sS'key'
p15
g8
sbs(I-1
I1
tp16
g0
(g9
g2
Ntp17
Rp18
(dp19
g13
I01
sg14
F0.5289875347296907
sg15
g16
sbs(I-2
I2
tp20
g0
(g9
g2
Ntp21
Rp22
(dp23
g13
I01
sg14
F-0.12994711323917574
sg15
g20
sbs(I-2
I0
tp24
g0
(g9
g2
Ntp25
Rp26
(dp27
g13
I01
sg14
F0.13891206931880865
sg15
g24
sbs(I-1
I2
tp28
g0
(g9
g2
Ntp29
Rp30
(dp31
g13
I01
sg14
F0.5225487442864994
sg15
g28
sbs(I303
I1
tp32
g0
(g9
g2
Ntp33
Rp34
(dp35
g13
I01
sg14
F-0.3456104957762704
sg15
g32
sbs(I-3
I1
tp36
g0
(g9
g2
Ntp37
Rp38
(dp39
g13
I00
sg14
F-0.23562093450837834
sg15
g36
sbs(I-3
I2
tp40
g0
(g9
g2
Ntp41
Rp42
(dp43
g13
I01
sg14
F1.9096105558310466
sg15
g40
sbs(I13
I0
tp44
g0
(g9
g2
Ntp45
Rp46
(dp47
g13
I01
sg14
F-1.1483122766364016
sg15
g44
sbs(I-2
I13
tp48
g0
(g9
g2
Ntp49
Rp50
(dp51
g13
I01
sg14
F-3.7603929959124
sg15
g48
sbs(I-1
I13
tp52
g0
(g9
g2
Ntp53
Rp54
(dp55
g13
I01
sg14
F4.443761772865409
sg15
g52
sbs(I-3
I303
tp56
g0
(g9
g2
Ntp57
Rp58
(dp59
g13
I01
sg14
F0.19760278775904483
sg15
g56
sbs(I-2
I263
tp60
g0
(g9
g2
Ntp61
Rp62
(dp63
g13
I01
sg14
F1.6917224391202677
sg15
g60
sbs(I263
I2
tp64
g0
(g9
g2
Ntp65
Rp66
(dp67
g13
I01
sg14
F0.2159200534559114
sg15
g64
sbssS'nodes'
p68
(dp69
I0
g0
(cneat.genes
DefaultNodeGene
p70
g2
Ntp71
Rp72
(dp73
S'activation'
p74
S'relu'
p75
sS'bias'
p76
F2.214941055563395
sS'response'
p77
F1.0
sg15
I0
sS'aggregation'
p78
S'sum'
p79
sbsI1
g0
(g70
g2
Ntp80
Rp81
(dp82
g74
g75
sg76
F4.34961443103163
sg77
F1.0
sg15
I1
sg78
g79
sbsI2
g0
(g70
g2
Ntp83
Rp84
(dp85
g74
g75
sg76
F3.6989463887913177
sg77
F1.0
sg15
I2
sg78
g79
sbsI263
g0
(g70
g2
Ntp86
Rp87
(dp88
g74
g75
sg76
F2.334066285780568
sg77
F1.0
sg15
I263
sg78
g79
sbsI13
g0
(g70
g2
Ntp89
Rp90
(dp91
g74
g75
sg76
F1.5868595995942876
sg77
F1.0
sg15
I13
sg78
g79
sbsI303
g0
(g70
g2
Ntp92
Rp93
(dp94
g74
g75
sg76
F4.043743674927224
sg77
F1.0
sg15
I303
sg78
g79
sbssg15
I255
sS'fitness'
p95
I314
sb.