ccopy_reg
_reconstructor
p0
(cneat.genome
DefaultGenome
p1
c__builtin__
object
p2
Ntp3
Rp4
(dp5
S'connections'
p6
(dp7
(I309
I14
tp8
g0
(cneat.genes
DefaultConnectionGene
p9
g2
Ntp10
Rp11
(dp12
S'enabled'
p13
I01
sS'weight'
p14
F-1.7489881504526785
sS'key'
p15
g8
sbs(I181
I14
tp16
g0
(g9
g2
Ntp17
Rp18
(dp19
g13
I01
sg14
F-0.0018812206639223041
sg15
g16
sbs(I-1
I1
tp20
g0
(g9
g2
Ntp21
Rp22
(dp23
g13
I01
sg14
F2.8097296118128257
sg15
g20
sbs(I-2
I2
tp24
g0
(g9
g2
Ntp25
Rp26
(dp27
g13
I01
sg14
F1.1967452075893736
sg15
g24
sbs(I-2
I0
tp28
g0
(g9
g2
Ntp29
Rp30
(dp31
g13
I01
sg14
F-0.5368966386101262
sg15
g28
sbs(I181
I0
tp32
g0
(g9
g2
Ntp33
Rp34
(dp35
g13
I00
sg14
F0.5620745693744588
sg15
g32
sbs(I-2
I14
tp36
g0
(g9
g2
Ntp37
Rp38
(dp39
g13
I00
sg14
F-1.8230935075328183
sg15
g36
sbs(I-1
I2
tp40
g0
(g9
g2
Ntp41
Rp42
(dp43
g13
I01
sg14
F0.4661782156975309
sg15
g40
sbs(I-2
I1
tp44
g0
(g9
g2
Ntp45
Rp46
(dp47
g13
I01
sg14
F-1.1250579554827378
sg15
g44
sbs(I-3
I2
tp48
g0
(g9
g2
Ntp49
Rp50
(dp51
g13
I01
sg14
F-1.140507555032428
sg15
g48
sbs(I14
I0
tp52
g0
(g9
g2
Ntp53
Rp54
(dp55
g13
I00
sg14
F0.8618970341299506
sg15
g52
sbs(I-2
I309
tp56
g0
(g9
g2
Ntp57
Rp58
(dp59
g13
I01
sg14
F0.132348234902946
sg15
g56
sbssS'nodes'
p60
(dp61
I0
g0
(cneat.genes
DefaultNodeGene
p62
g2
Ntp63
Rp64
(dp65
S'activation'
p66
S'relu'
p67
sS'bias'
p68
F3.882805468071128
sS'response'
p69
F1.0
sg15
I0
sS'aggregation'
p70
S'sum'
p71
sbsI1
g0
(g62
g2
Ntp72
Rp73
(dp74
g66
g67
sg68
F2.519617448889349
sg69
F1.0
sg15
I1
sg70
g71
sbsI2
g0
(g62
g2
Ntp75
Rp76
(dp77
g66
g67
sg68
F0.3525917323585884
sg69
F1.0
sg15
I2
sg70
g71
sbsI14
g0
(g62
g2
Ntp78
Rp79
(dp80
g66
g67
sg68
F0.8351403641228848
sg69
F1.0
sg15
I14
sg70
g71
sbsI181
g0
(g62
g2
Ntp81
Rp82
(dp83
g66
g67
sg68
F5.264242218277058
sg69
F1.0
sg15
I181
sg70
g71
sbsI309
g0
(g62
g2
Ntp84
Rp85
(dp86
g66
g67
sg68
F2.732309977950557
sg69
F1.0
sg15
I309
sg70
g71
sbssg15
I396
sS'fitness'
p87
I81
sb.